; Function Attrs: mustprogress uwtable
define void @ggml_backend_cpu_set_n_threads(ptr noundef readonly %0, i32 noundef %1) #0 {
  %.not.i = icmp eq ptr %0, null
  br i1 %.not.i, label %ggml_backend_is_cpu.exit.thread, label %ggml_backend_is_cpu.exit

ggml_backend_is_cpu.exit:                         ; preds = %2
  %3 = load ptr, ptr %0, align 8, !tbaa !22
  %4 = tail call zeroext i1 @ggml_guid_matches(ptr noundef %3, ptr noundef nonnull @_ZZL21ggml_backend_cpu_guidvE4guid)
  br i1 %4, label %5, label %ggml_backend_is_cpu.exit.thread

ggml_backend_is_cpu.exit.thread:                  ; preds = %2, %ggml_backend_is_cpu.exit
  tail call void (ptr, i32, ptr, ...) @ggml_abort(ptr noundef nonnull @.str.2, i32 noundef 228, ptr noundef nonnull @.str.3, ptr noundef nonnull @.str.4) #26
  unreachable

5:                                                ; preds = %ggml_backend_is_cpu.exit
  %6 = getelementptr inbounds nuw i8, ptr %0, i64 120
  %7 = load ptr, ptr %6, align 8, !tbaa !29
  store i32 %1, ptr %7, align 8, !tbaa !16
  ret void
}